; ModuleID = '50/872.c'
source_filename = "50/872.c"
target datalayout = "e-m:e-p270:32:32-p271:32:32-p272:64:64-i64:64-f80:128-n8:16:32:64-S128"
target triple = "x86_64-pc-linux-gnu"

@__const.main.a = private unnamed_addr constant [13 x i32] [i32 0, i32 31, i32 28, i32 31, i32 30, i32 31, i32 30, i32 31, i32 31, i32 30, i32 31, i32 30, i32 31], align 16
@.str = private unnamed_addr constant [3 x i8] c"%d\00", align 1
@.str.1 = private unnamed_addr constant [4 x i8] c"%d\0A\00", align 1

; Function Attrs: noinline nounwind uwtable
define dso_local i32 @main() #0 {
  %1 = alloca i32, align 4
  %2 = alloca [13 x i32], align 16
  %3 = alloca i32, align 4
  %4 = alloca i32, align 4
  %5 = alloca i32, align 4
  %6 = alloca i32, align 4
  %7 = alloca i32, align 4
  store i32 0, i32* %1, align 4
  %8 = bitcast [13 x i32]* %2 to i8*
  call void @llvm.memcpy.p0i8.p0i8.i64(i8* align 16 %8, i8* align 16 bitcast ([13 x i32]* @__const.main.a to i8*), i64 52, i1 false)
  %9 = call i32 (i8*, ...) @__isoc99_scanf(i8* getelementptr inbounds ([3 x i8], [3 x i8]* @.str, i64 0, i64 0), i32* %3)
  store i32 1, i32* %4, align 4
  br label %10

10:                                               ; preds = %40, %0
  %11 = load i32, i32* %4, align 4
  %12 = icmp sle i32 %11, 12
  br i1 %12, label %13, label %43

13:                                               ; preds = %10
  store i32 0, i32* %6, align 4
  store i32 0, i32* %5, align 4
  br label %14

14:                                               ; preds = %25, %13
  %15 = load i32, i32* %5, align 4
  %16 = load i32, i32* %4, align 4
  %17 = icmp slt i32 %15, %16
  br i1 %17, label %18, label %28

18:                                               ; preds = %14
  %19 = load i32, i32* %6, align 4
  %20 = load i32, i32* %5, align 4
  %21 = sext i32 %20 to i64
  %22 = getelementptr inbounds [13 x i32], [13 x i32]* %2, i64 0, i64 %21
  %23 = load i32, i32* %22, align 4
  %24 = add nsw i32 %19, %23
  store i32 %24, i32* %6, align 4
  br label %25

25:                                               ; preds = %18
  %26 = load i32, i32* %5, align 4
  %27 = add nsw i32 %26, 1
  store i32 %27, i32* %5, align 4
  br label %14

28:                                               ; preds = %14
  %29 = load i32, i32* %6, align 4
  %30 = add nsw i32 %29, 12
  %31 = load i32, i32* %3, align 4
  %32 = add nsw i32 %30, %31
  %33 = srem i32 %32, 7
  store i32 %33, i32* %7, align 4
  %34 = load i32, i32* %7, align 4
  %35 = icmp eq i32 %34, 5
  br i1 %35, label %36, label %39

36:                                               ; preds = %28
  %37 = load i32, i32* %4, align 4
  %38 = call i32 (i8*, ...) @printf(i8* getelementptr inbounds ([4 x i8], [4 x i8]* @.str.1, i64 0, i64 0), i32 %37)
  br label %39

39:                                               ; preds = %36, %28
  br label %40

40:                                               ; preds = %39
  %41 = load i32, i32* %4, align 4
  %42 = add nsw i32 %41, 1
  store i32 %42, i32* %4, align 4
  br label %10

43:                                               ; preds = %10
  %44 = load i32, i32* %1, align 4
  ret i32 %44
}

; Function Attrs: argmemonly nounwind willreturn
declare void @llvm.memcpy.p0i8.p0i8.i64(i8* noalias nocapture writeonly, i8* noalias nocapture readonly, i64, i1 immarg) #1

declare dso_local i32 @__isoc99_scanf(i8*, ...) #2

declare dso_local i32 @printf(i8*, ...) #2


!llvm.module.flags = !{!0}
!llvm.ident = !{!1}

!0 = !{i32 1, !"wchar_size", i32 4}
!1 = !{!"clang version 10.0.0-4ubuntu1 "}
